; Function Attrs: mustprogress uwtable
define void @_ZN5Yosys10PrettyJson3rawEPKc(ptr nocapture noundef nonnull readonly align 8 dereferenceable(84) %0, ptr noundef %1) local_unnamed_addr #3 align 2 {
  %3 = getelementptr inbounds i8, ptr %0, i64 32
  %4 = load ptr, ptr %3, align 8
  %5 = getelementptr inbounds i8, ptr %0, i64 40
  %6 = load ptr, ptr %5, align 8
  %.not8 = icmp eq ptr %4, %6
  br i1 %.not8, label %._crit_edge, label %.lr.ph

.lr.ph:                                           ; preds = %2, %.lr.ph
  %.sroa.05.09 = phi ptr [ %10, %.lr.ph ], [ %4, %2 ]
  %7 = load ptr, ptr %.sroa.05.09, align 8
  %8 = load ptr, ptr %7, align 8
  %9 = load ptr, ptr %8, align 8
  tail call void %9(ptr noundef nonnull align 8 dereferenceable(8) %7, ptr noundef %1)
  %10 = getelementptr inbounds i8, ptr %.sroa.05.09, i64 8
  %.not = icmp eq ptr %10, %6
  br i1 %.not, label %._crit_edge, label %.lr.ph

._crit_edge:                                      ; preds = %.lr.ph, %2
  ret void
}